target datalayout = "e-m:e-p270:32:32-p271:32:32-p272:64:64-i64:64-i128:128-f80:128-n8:16:32:64-S128"
target triple = "x86_64-pc-linux-gnu"

%struct.ImGuiSelectionBasicStorage = type { i32, i8, ptr, ptr, i32, %struct.ImGuiStorage }
%struct.ImGuiStorage = type { %struct.ImVector.14 }
%struct.ImVector.14 = type { i32, i32, ptr }
%struct.ImVector.16 = type { i32, i32, ptr }
%class.anon.17 = type { i8 }

; Function Attrs: inlinehint mustprogress nounwind uwtable
define linkonce_odr dso_local noundef nonnull align 4 dereferenceable(4) ptr @_ZN8ImVectorIjEixEi(ptr noundef nonnull align 8 dereferenceable(16) %0, i32 noundef %1) #6 comdat align 2 {
  %3 = alloca ptr, align 8
  %4 = alloca i32, align 4
  store ptr %0, ptr %3, align 8, !tbaa !457
  store i32 %1, ptr %4, align 4, !tbaa !33
  %5 = load ptr, ptr %3, align 8
  %6 = getelementptr inbounds nuw %struct.ImVector.16, ptr %5, i32 0, i32 2
  %7 = load ptr, ptr %6, align 8, !tbaa !460
  %8 = load i32, ptr %4, align 4, !tbaa !33
  %9 = sext i32 %8 to i64
  %10 = getelementptr inbounds i32, ptr %7, i64 %9
  ret ptr %10
}

; Function Attrs: inlinehint mustprogress uwtable
define internal noundef i32 @"_ZZL25ShowDemoWindowMultiSelectP19ImGuiDemoWindowDataENK3$_0clEP26ImGuiSelectionBasicStoragei"(ptr noundef nonnull align 1 dereferenceable(1) %0, ptr noundef %1, i32 noundef %2) #11 align 2 {
  %4 = alloca ptr, align 8
  %5 = alloca ptr, align 8
  %6 = alloca i32, align 4
  %7 = alloca ptr, align 8
  store ptr %0, ptr %4, align 8, !tbaa !43
  store ptr %1, ptr %5, align 8, !tbaa !419
  store i32 %2, ptr %6, align 4, !tbaa !33
  call void @llvm.lifetime.start.p0(i64 8, ptr %7) #7
  %8 = load ptr, ptr %5, align 8, !tbaa !419
  %9 = getelementptr inbounds nuw %struct.ImGuiSelectionBasicStorage, ptr %8, i32 0, i32 2
  %10 = load ptr, ptr %9, align 8, !tbaa !404
  store ptr %10, ptr %7, align 8, !tbaa !457
  %11 = load ptr, ptr %7, align 8, !tbaa !457
  %12 = load i32, ptr %6, align 4, !tbaa !33
  %13 = call noundef nonnull align 4 dereferenceable(4) ptr @_ZN8ImVectorIjEixEi(ptr noundef nonnull align 8 dereferenceable(16) %11, i32 noundef %12)
  %14 = load i32, ptr %13, align 4, !tbaa !33
  call void @llvm.lifetime.end.p0(i64 8, ptr %7) #7
  ret i32 %14
}

; Function Attrs: inlinehint mustprogress uwtable
define internal noundef i32 @"_ZZL25ShowDemoWindowMultiSelectP19ImGuiDemoWindowDataEN3$_08__invokeEP26ImGuiSelectionBasicStoragei"(ptr noundef %0, i32 noundef %1) #11 align 2 {
  %3 = alloca ptr, align 8
  %4 = alloca i32, align 4
  %5 = alloca %class.anon.17, align 1
  store ptr %0, ptr %3, align 8, !tbaa !419
  store i32 %1, ptr %4, align 4, !tbaa !33
  %6 = load ptr, ptr %3, align 8, !tbaa !419
  %7 = load i32, ptr %4, align 4, !tbaa !33
  %8 = call noundef i32 @"_ZZL25ShowDemoWindowMultiSelectP19ImGuiDemoWindowDataENK3$_0clEP26ImGuiSelectionBasicStoragei"(ptr noundef nonnull align 1 dereferenceable(1) %5, ptr noundef %6, i32 noundef %7)
  ret i32 %8
}